target datalayout = "e-m:e-p270:32:32-p271:32:32-p272:64:64-i64:64-i128:128-f80:128-n8:16:32:64-S128"
target triple = "x86_64-pc-linux-gnu"

%struct.Tru_Man_t_ = type { i32, i32, i32, i32, ptr, ptr, ptr, [16 x i32], i32 }
%struct.Tru_One_t_ = type { i32, i32, [0 x i64] }
%struct.Vec_Set_t_ = type { i32, i32, i32, i32, i32, i32, ptr }

@Tru_ManLookup.s_Primes = internal global [10 x i32] [i32 1291, i32 1699, i32 2357, i32 4177, i32 5147, i32 5647, i32 6343, i32 7103, i32 7873, i32 8147], align 16

; Function Attrs: inlinehint nounwind uwtable
define internal i32 @Vec_SetHandShift(ptr noundef %0, i32 noundef %1) #2 {
  %3 = alloca ptr, align 8
  %4 = alloca i32, align 4
  store ptr %0, ptr %3, align 8, !tbaa !37
  store i32 %1, ptr %4, align 4, !tbaa !18
  %5 = load i32, ptr %4, align 4, !tbaa !18
  %6 = load ptr, ptr %3, align 8, !tbaa !37
  %7 = getelementptr inbounds nuw %struct.Vec_Set_t_, ptr %6, i32 0, i32 1
  %8 = load i32, ptr %7, align 4, !tbaa !52
  %9 = and i32 %5, %8
  ret i32 %9
}

; Function Attrs: inlinehint nounwind uwtable
define internal i32 @Vec_SetHandPage(ptr noundef %0, i32 noundef %1) #2 {
  %3 = alloca ptr, align 8
  %4 = alloca i32, align 4
  store ptr %0, ptr %3, align 8, !tbaa !37
  store i32 %1, ptr %4, align 4, !tbaa !18
  %5 = load i32, ptr %4, align 4, !tbaa !18
  %6 = load ptr, ptr %3, align 8, !tbaa !37
  %7 = getelementptr inbounds nuw %struct.Vec_Set_t_, ptr %6, i32 0, i32 0
  %8 = load i32, ptr %7, align 8, !tbaa !44
  %9 = ashr i32 %5, %8
  ret i32 %9
}

; Function Attrs: inlinehint nounwind uwtable
define internal ptr @Vec_SetEntry(ptr noundef %0, i32 noundef %1) #2 {
  %3 = alloca ptr, align 8
  %4 = alloca i32, align 4
  store ptr %0, ptr %3, align 8, !tbaa !37
  store i32 %1, ptr %4, align 4, !tbaa !18
  %5 = load ptr, ptr %3, align 8, !tbaa !37
  %6 = getelementptr inbounds nuw %struct.Vec_Set_t_, ptr %5, i32 0, i32 6
  %7 = load ptr, ptr %6, align 8, !tbaa !42
  %8 = load ptr, ptr %3, align 8, !tbaa !37
  %9 = load i32, ptr %4, align 4, !tbaa !18
  %10 = call i32 @Vec_SetHandPage(ptr noundef %8, i32 noundef %9)
  %11 = sext i32 %10 to i64
  %12 = getelementptr inbounds ptr, ptr %7, i64 %11
  %13 = load ptr, ptr %12, align 8, !tbaa !8
  %14 = load ptr, ptr %3, align 8, !tbaa !37
  %15 = load i32, ptr %4, align 4, !tbaa !18
  %16 = call i32 @Vec_SetHandShift(ptr noundef %14, i32 noundef %15)
  %17 = sext i32 %16 to i64
  %18 = getelementptr inbounds i64, ptr %13, i64 %17
  ret ptr %18
}

; Function Attrs: inlinehint nounwind uwtable
define internal i32 @Tru_ManEqual(ptr noundef %0, ptr noundef %1, i32 noundef %2) #2 {
  %4 = alloca i32, align 4
  %5 = alloca ptr, align 8
  %6 = alloca ptr, align 8
  %7 = alloca i32, align 4
  %8 = alloca i32, align 4
  %9 = alloca i32, align 4
  store ptr %0, ptr %5, align 8, !tbaa !8
  store ptr %1, ptr %6, align 8, !tbaa !8
  store i32 %2, ptr %7, align 4, !tbaa !18
  call void @llvm.lifetime.start.p0(i64 4, ptr %8) #10
  store i32 0, ptr %8, align 4, !tbaa !18
  br label %10

10:                                               ; preds = %28, %3
  %11 = load i32, ptr %8, align 4, !tbaa !18
  %12 = load i32, ptr %7, align 4, !tbaa !18
  %13 = icmp slt i32 %11, %12
  br i1 %13, label %14, label %31

14:                                               ; preds = %10
  %15 = load ptr, ptr %5, align 8, !tbaa !8
  %16 = load i32, ptr %8, align 4, !tbaa !18
  %17 = sext i32 %16 to i64
  %18 = getelementptr inbounds i64, ptr %15, i64 %17
  %19 = load i64, ptr %18, align 8, !tbaa !23
  %20 = load ptr, ptr %6, align 8, !tbaa !8
  %21 = load i32, ptr %8, align 4, !tbaa !18
  %22 = sext i32 %21 to i64
  %23 = getelementptr inbounds i64, ptr %20, i64 %22
  %24 = load i64, ptr %23, align 8, !tbaa !23
  %25 = icmp ne i64 %19, %24
  br i1 %25, label %26, label %27

26:                                               ; preds = %14
  store i32 0, ptr %4, align 4
  store i32 1, ptr %9, align 4
  br label %32

27:                                               ; preds = %14
  br label %28

28:                                               ; preds = %27
  %29 = load i32, ptr %8, align 4, !tbaa !18
  %30 = add nsw i32 %29, 1
  store i32 %30, ptr %8, align 4, !tbaa !18
  br label %10, !llvm.loop !27

31:                                               ; preds = %10
  store i32 1, ptr %4, align 4
  store i32 1, ptr %9, align 4
  br label %32

32:                                               ; preds = %31, %26
  call void @llvm.lifetime.end.p0(i64 4, ptr %8) #10
  %33 = load i32, ptr %4, align 4
  ret i32 %33
}

; Function Attrs: inlinehint nounwind uwtable
define internal ptr @Tru_ManReadOne(ptr noundef %0, i32 noundef %1) #2 {
  %3 = alloca ptr, align 8
  %4 = alloca i32, align 4
  store ptr %0, ptr %3, align 8, !tbaa !3
  store i32 %1, ptr %4, align 4, !tbaa !18
  %5 = load i32, ptr %4, align 4, !tbaa !18
  %6 = icmp ne i32 %5, 0
  br i1 %6, label %7, label %13

7:                                                ; preds = %2
  %8 = load ptr, ptr %3, align 8, !tbaa !3
  %9 = getelementptr inbounds nuw %struct.Tru_Man_t_, ptr %8, i32 0, i32 5
  %10 = load ptr, ptr %9, align 8, !tbaa !26
  %11 = load i32, ptr %4, align 4, !tbaa !18
  %12 = call ptr @Vec_SetEntry(ptr noundef %10, i32 noundef %11)
  br label %14

13:                                               ; preds = %2
  br label %14

14:                                               ; preds = %13, %7
  %15 = phi ptr [ %12, %7 ], [ null, %13 ]
  ret ptr %15
}

; Function Attrs: inlinehint nounwind uwtable
define internal i32 @Tru_ManHash(ptr noundef %0, i32 noundef %1, i32 noundef %2, ptr noundef %3) #2 {
  %5 = alloca ptr, align 8
  %6 = alloca i32, align 4
  %7 = alloca i32, align 4
  %8 = alloca ptr, align 8
  %9 = alloca i32, align 4
  %10 = alloca i32, align 4
  store ptr %0, ptr %5, align 8, !tbaa !8
  store i32 %1, ptr %6, align 4, !tbaa !18
  store i32 %2, ptr %7, align 4, !tbaa !18
  store ptr %3, ptr %8, align 8, !tbaa !17
  call void @llvm.lifetime.start.p0(i64 4, ptr %9) #10
  call void @llvm.lifetime.start.p0(i64 4, ptr %10) #10
  store i32 0, ptr %10, align 4, !tbaa !18
  store i32 0, ptr %9, align 4, !tbaa !18
  br label %11

11:                                               ; preds = %33, %4
  %12 = load i32, ptr %9, align 4, !tbaa !18
  %13 = load i32, ptr %6, align 4, !tbaa !18
  %14 = icmp slt i32 %12, %13
  br i1 %14, label %15, label %36

15:                                               ; preds = %11
  %16 = load ptr, ptr %5, align 8, !tbaa !8
  %17 = load i32, ptr %9, align 4, !tbaa !18
  %18 = sext i32 %17 to i64
  %19 = getelementptr inbounds i64, ptr %16, i64 %18
  %20 = load i64, ptr %19, align 8, !tbaa !23
  %21 = load ptr, ptr %8, align 8, !tbaa !17
  %22 = load i32, ptr %9, align 4, !tbaa !18
  %23 = and i32 %22, 7
  %24 = sext i32 %23 to i64
  %25 = getelementptr inbounds i32, ptr %21, i64 %24
  %26 = load i32, ptr %25, align 4, !tbaa !18
  %27 = sext i32 %26 to i64
  %28 = mul i64 %20, %27
  %29 = load i32, ptr %10, align 4, !tbaa !18
  %30 = zext i32 %29 to i64
  %31 = xor i64 %30, %28
  %32 = trunc i64 %31 to i32
  store i32 %32, ptr %10, align 4, !tbaa !18
  br label %33

33:                                               ; preds = %15
  %34 = load i32, ptr %9, align 4, !tbaa !18
  %35 = add nsw i32 %34, 1
  store i32 %35, ptr %9, align 4, !tbaa !18
  br label %11, !llvm.loop !25

36:                                               ; preds = %11
  %37 = load i32, ptr %10, align 4, !tbaa !18
  %38 = load i32, ptr %7, align 4, !tbaa !18
  %39 = urem i32 %37, %38
  call void @llvm.lifetime.end.p0(i64 4, ptr %10) #10
  call void @llvm.lifetime.end.p0(i64 4, ptr %9) #10
  ret i32 %39
}

; Function Attrs: nounwind uwtable
define ptr @Tru_ManLookup(ptr noundef %0, ptr noundef %1) #0 {
  %3 = alloca ptr, align 8
  %4 = alloca ptr, align 8
  %5 = alloca ptr, align 8
  %6 = alloca ptr, align 8
  %7 = alloca ptr, align 8
  %8 = alloca i32, align 4
  store ptr %0, ptr %4, align 8, !tbaa !3
  store ptr %1, ptr %5, align 8, !tbaa !8
  call void @llvm.lifetime.start.p0(i64 8, ptr %6) #10
  call void @llvm.lifetime.start.p0(i64 8, ptr %7) #10
  %9 = load ptr, ptr %4, align 8, !tbaa !3
  %10 = getelementptr inbounds nuw %struct.Tru_Man_t_, ptr %9, i32 0, i32 4
  %11 = load ptr, ptr %10, align 8, !tbaa !10
  %12 = load ptr, ptr %5, align 8, !tbaa !8
  %13 = load ptr, ptr %4, align 8, !tbaa !3
  %14 = getelementptr inbounds nuw %struct.Tru_Man_t_, ptr %13, i32 0, i32 1
  %15 = load i32, ptr %14, align 4, !tbaa !15
  %16 = load ptr, ptr %4, align 8, !tbaa !3
  %17 = getelementptr inbounds nuw %struct.Tru_Man_t_, ptr %16, i32 0, i32 3
  %18 = load i32, ptr %17, align 4, !tbaa !16
  %19 = call i32 @Tru_ManHash(ptr noundef %12, i32 noundef %15, i32 noundef %18, ptr noundef @Tru_ManLookup.s_Primes)
  %20 = zext i32 %19 to i64
  %21 = getelementptr inbounds nuw i32, ptr %11, i64 %20
  store ptr %21, ptr %7, align 8, !tbaa !17
  %22 = load ptr, ptr %4, align 8, !tbaa !3
  %23 = load ptr, ptr %7, align 8, !tbaa !17
  %24 = load i32, ptr %23, align 4, !tbaa !18
  %25 = call ptr @Tru_ManReadOne(ptr noundef %22, i32 noundef %24)
  store ptr %25, ptr %6, align 8, !tbaa !19
  br label %26

26:                                               ; preds = %42, %2
  %27 = load ptr, ptr %6, align 8, !tbaa !19
  %28 = icmp ne ptr %27, null
  br i1 %28, label %29, label %49

29:                                               ; preds = %26
  %30 = load ptr, ptr %6, align 8, !tbaa !19
  %31 = getelementptr inbounds nuw %struct.Tru_One_t_, ptr %30, i32 0, i32 2
  %32 = getelementptr inbounds [0 x i64], ptr %31, i64 0, i64 0
  %33 = load ptr, ptr %5, align 8, !tbaa !8
  %34 = load ptr, ptr %4, align 8, !tbaa !3
  %35 = getelementptr inbounds nuw %struct.Tru_Man_t_, ptr %34, i32 0, i32 1
  %36 = load i32, ptr %35, align 4, !tbaa !15
  %37 = call i32 @Tru_ManEqual(ptr noundef %32, ptr noundef %33, i32 noundef %36)
  %38 = icmp ne i32 %37, 0
  br i1 %38, label %39, label %41

39:                                               ; preds = %29
  %40 = load ptr, ptr %7, align 8, !tbaa !17
  store ptr %40, ptr %3, align 8
  store i32 1, ptr %8, align 4
  br label %51

41:                                               ; preds = %29
  br label %42

42:                                               ; preds = %41
  %43 = load ptr, ptr %6, align 8, !tbaa !19
  %44 = getelementptr inbounds nuw %struct.Tru_One_t_, ptr %43, i32 0, i32 1
  store ptr %44, ptr %7, align 8, !tbaa !17
  %45 = load ptr, ptr %4, align 8, !tbaa !3
  %46 = load ptr, ptr %7, align 8, !tbaa !17
  %47 = load i32, ptr %46, align 4, !tbaa !18
  %48 = call ptr @Tru_ManReadOne(ptr noundef %45, i32 noundef %47)
  store ptr %48, ptr %6, align 8, !tbaa !19
  br label %26, !llvm.loop !21

49:                                               ; preds = %26
  %50 = load ptr, ptr %7, align 8, !tbaa !17
  store ptr %50, ptr %3, align 8
  store i32 1, ptr %8, align 4
  br label %51

51:                                               ; preds = %49, %39
  call void @llvm.lifetime.end.p0(i64 8, ptr %7) #10
  call void @llvm.lifetime.end.p0(i64 8, ptr %6) #10
  %52 = load ptr, ptr %3, align 8
  ret ptr %52
}