; Function Attrs: nofree norecurse nosync nounwind memory(read, inaccessiblemem: none) uwtable
define noundef ptr @Tru_ManLookup(ptr noundef readonly captures(none) %0, ptr noundef readonly captures(none) %1) local_unnamed_addr #0 {
  %3 = getelementptr inbounds nuw i8, ptr %0, i64 16
  %4 = load ptr, ptr %3, align 8, !tbaa !3
  %5 = getelementptr inbounds nuw i8, ptr %0, i64 4
  %6 = load i32, ptr %5, align 4, !tbaa !12
  %7 = getelementptr inbounds nuw i8, ptr %0, i64 12
  %8 = load i32, ptr %7, align 4, !tbaa !13
  %9 = icmp sgt i32 %6, 0
  br i1 %9, label %.lr.ph.preheader.i, label %Tru_ManHash.exit

.lr.ph.preheader.i:                               ; preds = %2
  %wide.trip.count.i = zext nneg i32 %6 to i64
  br label %.lr.ph.i

.lr.ph.i:                                         ; preds = %.lr.ph.i, %.lr.ph.preheader.i
  %indvars.iv.i = phi i64 [ 0, %.lr.ph.preheader.i ], [ %indvars.iv.next.i, %.lr.ph.i ]
  %.02.i = phi i32 [ 0, %.lr.ph.preheader.i ], [ %17, %.lr.ph.i ]
  %10 = getelementptr inbounds nuw i64, ptr %1, i64 %indvars.iv.i
  %11 = load i64, ptr %10, align 8, !tbaa !14
  %12 = and i64 %indvars.iv.i, 7
  %13 = getelementptr inbounds nuw i32, ptr @Tru_ManLookup.s_Primes, i64 %12
  %14 = load i32, ptr %13, align 4, !tbaa !16
  %15 = trunc i64 %11 to i32
  %16 = mul i32 %14, %15
  %17 = xor i32 %16, %.02.i
  %indvars.iv.next.i = add nuw nsw i64 %indvars.iv.i, 1
  %exitcond.not.i = icmp eq i64 %indvars.iv.next.i, %wide.trip.count.i
  br i1 %exitcond.not.i, label %Tru_ManHash.exit, label %.lr.ph.i, !llvm.loop !17

Tru_ManHash.exit:                                 ; preds = %.lr.ph.i, %2
  %.0.lcssa.i = phi i32 [ 0, %2 ], [ %17, %.lr.ph.i ]
  %18 = urem i32 %.0.lcssa.i, %8
  %19 = zext i32 %18 to i64
  %20 = getelementptr inbounds nuw i32, ptr %4, i64 %19
  %21 = load i32, ptr %20, align 4, !tbaa !16
  %.not.i = icmp eq i32 %21, 0
  br i1 %.not.i, label %Tru_ManEqual.exit.thread, label %Tru_ManReadOne.exit

Tru_ManReadOne.exit:                              ; preds = %Tru_ManHash.exit
  %22 = getelementptr inbounds nuw i8, ptr %0, i64 24
  %23 = load ptr, ptr %22, align 8, !tbaa !19
  %24 = getelementptr inbounds nuw i8, ptr %23, i64 24
  %25 = load ptr, ptr %24, align 8, !tbaa !20
  %.val.i.i = load i32, ptr %23, align 8, !tbaa !23
  %26 = ashr i32 %21, %.val.i.i
  %27 = sext i32 %26 to i64
  %28 = getelementptr inbounds ptr, ptr %25, i64 %27
  %29 = load ptr, ptr %28, align 8, !tbaa !24
  %.not35 = icmp eq ptr %29, null
  br i1 %.not35, label %Tru_ManEqual.exit.thread, label %.lr.ph

.lr.ph:                                           ; preds = %Tru_ManReadOne.exit
  %wide.trip.count.i20 = zext nneg i32 %6 to i64
  %30 = getelementptr inbounds nuw i8, ptr %0, i64 24
  br i1 %9, label %.lr.ph.preheader.i19.us.preheader, label %Tru_ManEqual.exit.thread

.lr.ph.preheader.i19.us.preheader:                ; preds = %.lr.ph
  %31 = getelementptr i8, ptr %23, i64 4
  %.val4.i.i = load i32, ptr %31, align 4, !tbaa !25
  %32 = and i32 %.val4.i.i, %21
  %33 = sext i32 %32 to i64
  %34 = getelementptr inbounds i64, ptr %29, i64 %33
  br label %.lr.ph.preheader.i19.us

.lr.ph.preheader.i19.us:                          ; preds = %.lr.ph.preheader.i19.us.preheader, %Tru_ManReadOne.exit29.us
  %.037.us = phi ptr [ %40, %Tru_ManReadOne.exit29.us ], [ %20, %.lr.ph.preheader.i19.us.preheader ]
  %.01636.us = phi ptr [ %52, %Tru_ManReadOne.exit29.us ], [ %34, %.lr.ph.preheader.i19.us.preheader ]
  %35 = getelementptr inbounds nuw i8, ptr %.01636.us, i64 8
  br label %.lr.ph.i21.us

.lr.ph.i21.us:                                    ; preds = %53, %.lr.ph.preheader.i19.us
  %indvars.iv.i22.us = phi i64 [ 0, %.lr.ph.preheader.i19.us ], [ %indvars.iv.next.i24.us, %53 ]
  %36 = getelementptr inbounds nuw i64, ptr %35, i64 %indvars.iv.i22.us
  %37 = load i64, ptr %36, align 8, !tbaa !14
  %38 = getelementptr inbounds nuw i64, ptr %1, i64 %indvars.iv.i22.us
  %39 = load i64, ptr %38, align 8, !tbaa !14
  %.not.i23.us = icmp eq i64 %37, %39
  br i1 %.not.i23.us, label %53, label %Tru_ManEqual.exit.us

Tru_ManEqual.exit.us:                             ; preds = %.lr.ph.i21.us
  %40 = getelementptr inbounds nuw i8, ptr %.01636.us, i64 4
  %41 = load i32, ptr %40, align 4, !tbaa !16
  %.not.i26.us = icmp eq i32 %41, 0
  br i1 %.not.i26.us, label %Tru_ManEqual.exit.thread, label %Tru_ManReadOne.exit29.us

Tru_ManReadOne.exit29.us:                         ; preds = %Tru_ManEqual.exit.us
  %42 = load ptr, ptr %30, align 8, !tbaa !19
  %43 = getelementptr inbounds nuw i8, ptr %42, i64 24
  %44 = load ptr, ptr %43, align 8, !tbaa !20
  %.val.i.i27.us = load i32, ptr %42, align 8, !tbaa !23
  %45 = ashr i32 %41, %.val.i.i27.us
  %46 = sext i32 %45 to i64
  %47 = getelementptr inbounds ptr, ptr %44, i64 %46
  %48 = load ptr, ptr %47, align 8, !tbaa !24
  %49 = getelementptr i8, ptr %42, i64 4
  %.val4.i.i28.us = load i32, ptr %49, align 4, !tbaa !25
  %50 = and i32 %.val4.i.i28.us, %41
  %51 = sext i32 %50 to i64
  %52 = getelementptr inbounds i64, ptr %48, i64 %51
  %.not.us = icmp eq ptr %48, null
  br i1 %.not.us, label %Tru_ManEqual.exit.thread, label %.lr.ph.preheader.i19.us, !llvm.loop !26

53:                                               ; preds = %.lr.ph.i21.us
  %indvars.iv.next.i24.us = add nuw nsw i64 %indvars.iv.i22.us, 1
  %exitcond.not.i25.us = icmp eq i64 %indvars.iv.next.i24.us, %wide.trip.count.i20
  br i1 %exitcond.not.i25.us, label %Tru_ManEqual.exit.thread, label %.lr.ph.i21.us, !llvm.loop !27

Tru_ManEqual.exit.thread:                         ; preds = %Tru_ManEqual.exit.us, %Tru_ManReadOne.exit29.us, %53, %Tru_ManHash.exit, %.lr.ph, %Tru_ManReadOne.exit
  %.034 = phi ptr [ %20, %Tru_ManReadOne.exit ], [ %20, %.lr.ph ], [ %20, %Tru_ManHash.exit ], [ %.037.us, %53 ], [ %40, %Tru_ManReadOne.exit29.us ], [ %40, %Tru_ManEqual.exit.us ]
  ret ptr %.034
}